target datalayout = "e-m:e-p270:32:32-p271:32:32-p272:64:64-i64:64-i128:128-f80:128-n8:16:32:64-S128"
target triple = "x86_64-pc-linux-gnu"

%struct.strvec = type { ptr, i64, i64 }
%struct.strbuf = type { i64, i64, ptr }
%struct.object = type { i32, %struct.object_id }
%struct.object_id = type { [32 x i8], i32 }
%struct.tree = type { %struct.object, ptr, i64 }
%struct.oidset = type { %struct.kh_oid_set }
%struct.kh_oid_set = type { i32, i32, i32, i32, ptr, ptr, ptr }
%struct.rev_info = type { ptr, %struct.object_array, ptr, %struct.object_array, %struct.rev_cmdline_info, %struct.list_objects_filter_options, %struct.ref_exclusions, ptr, ptr, ptr, %struct.pathspec, i32, i32, i32, i32, i64, i32, i32, %struct.date_mode, i32, i32, i32, i32, ptr, i32, i32, ptr, ptr, i32, ptr, ptr, %struct.ident_split, ptr, i32, ptr, ptr, ptr, i32, i32, i32, ptr, %struct.grep_opt, ptr, i32, i32, i64, i64, i64, i32, i32, ptr, ptr, ptr, %struct.diff_options, %struct.diff_options, ptr, %struct.decoration, %struct.decoration, %struct.decoration, %struct.display_notes_opt, ptr, ptr, ptr, ptr, ptr, i32, ptr, i32, i32, i32, %struct.decoration, ptr, ptr, ptr, ptr, ptr, ptr, ptr, i32, ptr, i32, ptr, %struct.oidset }
%struct.object_array = type { i32, i32, ptr }
%struct.rev_cmdline_info = type { i32, i32, ptr }
%struct.list_objects_filter_options = type { %struct.strbuf, i32, i8, ptr, i64, i64, i32, i64, i64, ptr }
%struct.ref_exclusions = type { %struct.string_list, %struct.strvec, i8 }
%struct.string_list = type { ptr, i64, i64, i8, ptr }
%struct.pathspec = type { i32, i8, i32, i32, ptr }
%struct.date_mode = type { i32, i32, ptr }
%struct.ident_split = type { ptr, ptr, ptr, ptr, ptr, ptr, ptr, ptr }
%struct.grep_opt = type { ptr, ptr, ptr, ptr, ptr, ptr, i32, i32, i32, i32, i32, i32, i32, i32, i32, i32, i32, i32, i32, i32, i32, i32, i32, i32, i32, i32, i32, i32, i32, i32, i32, i32, [9 x [75 x i8]], i32, i32, i32, i32, i32, i32, i32, ptr, ptr, ptr }
%struct.diff_options = type { ptr, ptr, i32, i32, ptr, i32, ptr, i64, i64, ptr, ptr, ptr, ptr, %struct.diff_flags, i32, i32, i32, i32, i32, i32, i32, i32, i32, i32, i32, i32, i32, i32, i32, i32, i32, i32, i32, i32, i32, i32, ptr, i32, ptr, i32, i32, ptr, i64, i64, i32, i32, i32, i32, ptr, i32, i32, ptr, i32, i32, ptr, ptr, i32, [3 x i8], %struct.pathspec, ptr, ptr, ptr, ptr, ptr, ptr, ptr, ptr, i32, ptr, i32, i32, ptr, ptr, i32 }
%struct.diff_flags = type { i32, i32, i32, i32, i32, i32, i32, i32, i32, i32, i32, i32, i32, i32, i32, i32, i32, i32, i32, i32, i32, i32, i32, i32, i32, i32, i32, i32, i32, i32, i32, i32, i32, i32, i32 }
%struct.display_notes_opt = type { i32, %struct.string_list }
%struct.decoration = type { ptr, i32, i32, ptr }
%struct.cache_tree = type { i32, %struct.object_id, i32, i32, ptr }
%struct.cache_tree_sub = type { ptr, i32, i32, i32, [0 x i8] }

@.str.36 = private unnamed_addr constant [1 x i8] zeroinitializer, align 1
@strbuf_slopbuf = external global [0 x i8], align 1
@.str.41 = private unnamed_addr constant [5 x i8] c"%s%s\00", align 1
@.str.42 = private unnamed_addr constant [2 x i8] c"/\00", align 1
@.str.43 = private unnamed_addr constant [11 x i8] c"./strbuf.h\00", align 1
@.str.44 = private unnamed_addr constant [30 x i8] c"strbuf_setlen() beyond buffer\00", align 1

; Function Attrs: inlinehint nounwind uwtable
define internal void @strbuf_setlen(ptr noundef %0, i64 noundef %1) #4 {
  %3 = alloca ptr, align 8
  %4 = alloca i64, align 8
  store ptr %0, ptr %3, align 8, !tbaa !398
  store i64 %1, ptr %4, align 8, !tbaa !34
  %5 = load i64, ptr %4, align 8, !tbaa !34
  %6 = load ptr, ptr %3, align 8, !tbaa !398
  %7 = getelementptr inbounds nuw %struct.strbuf, ptr %6, i32 0, i32 0
  %8 = load i64, ptr %7, align 8, !tbaa !417
  %9 = icmp ne i64 %8, 0
  br i1 %9, label %10, label %15

10:                                               ; preds = %2
  %11 = load ptr, ptr %3, align 8, !tbaa !398
  %12 = getelementptr inbounds nuw %struct.strbuf, ptr %11, i32 0, i32 0
  %13 = load i64, ptr %12, align 8, !tbaa !417
  %14 = sub i64 %13, 1
  br label %16

15:                                               ; preds = %2
  br label %16

16:                                               ; preds = %15, %10
  %17 = phi i64 [ %14, %10 ], [ 0, %15 ]
  %18 = icmp ugt i64 %5, %17
  br i1 %18, label %19, label %20

19:                                               ; preds = %16
  call void (ptr, i32, ptr, ...) @BUG_fl(ptr noundef @.str.43, i32 noundef 167, ptr noundef @.str.44) #13
  unreachable

20:                                               ; preds = %16
  %21 = load i64, ptr %4, align 8, !tbaa !34
  %22 = load ptr, ptr %3, align 8, !tbaa !398
  %23 = getelementptr inbounds nuw %struct.strbuf, ptr %22, i32 0, i32 1
  store i64 %21, ptr %23, align 8, !tbaa !298
  %24 = load ptr, ptr %3, align 8, !tbaa !398
  %25 = getelementptr inbounds nuw %struct.strbuf, ptr %24, i32 0, i32 2
  %26 = load ptr, ptr %25, align 8, !tbaa !167
  %27 = icmp ne ptr %26, @strbuf_slopbuf
  br i1 %27, label %28, label %34

28:                                               ; preds = %20
  %29 = load ptr, ptr %3, align 8, !tbaa !398
  %30 = getelementptr inbounds nuw %struct.strbuf, ptr %29, i32 0, i32 2
  %31 = load ptr, ptr %30, align 8, !tbaa !167
  %32 = load i64, ptr %4, align 8, !tbaa !34
  %33 = getelementptr inbounds nuw i8, ptr %31, i64 %32
  store i8 0, ptr %33, align 1, !tbaa !41
  br label %35

34:                                               ; preds = %20
  br label %35

35:                                               ; preds = %34, %28
  ret void
}

; Function Attrs: nounwind uwtable
define internal void @add_cache_tree(ptr noundef %0, ptr noundef %1, ptr noundef %2, i32 noundef %3) #0 {
  %5 = alloca ptr, align 8
  %6 = alloca ptr, align 8
  %7 = alloca ptr, align 8
  %8 = alloca i32, align 4
  %9 = alloca i64, align 8
  %10 = alloca i32, align 4
  %11 = alloca ptr, align 8
  %12 = alloca ptr, align 8
  store ptr %0, ptr %5, align 8, !tbaa !400
  store ptr %1, ptr %6, align 8, !tbaa !88
  store ptr %2, ptr %7, align 8, !tbaa !398
  store i32 %3, ptr %8, align 4, !tbaa !9
  call void @llvm.lifetime.start.p0(i64 8, ptr %9) #12
  %13 = load ptr, ptr %7, align 8, !tbaa !398
  %14 = getelementptr inbounds nuw %struct.strbuf, ptr %13, i32 0, i32 1
  %15 = load i64, ptr %14, align 8, !tbaa !298
  store i64 %15, ptr %9, align 8, !tbaa !34
  call void @llvm.lifetime.start.p0(i64 4, ptr %10) #12
  %16 = load ptr, ptr %5, align 8, !tbaa !400
  %17 = getelementptr inbounds nuw %struct.cache_tree, ptr %16, i32 0, i32 0
  %18 = load i32, ptr %17, align 8, !tbaa !401
  %19 = icmp sge i32 %18, 0
  br i1 %19, label %20, label %44

20:                                               ; preds = %4
  call void @llvm.lifetime.start.p0(i64 8, ptr %11) #12
  %21 = load ptr, ptr %6, align 8, !tbaa !88
  %22 = getelementptr inbounds nuw %struct.rev_info, ptr %21, i32 0, i32 2
  %23 = load ptr, ptr %22, align 8, !tbaa !105
  %24 = load ptr, ptr %5, align 8, !tbaa !400
  %25 = getelementptr inbounds nuw %struct.cache_tree, ptr %24, i32 0, i32 1
  %26 = call ptr @lookup_tree(ptr noundef %23, ptr noundef %25)
  store ptr %26, ptr %11, align 8, !tbaa !45
  %27 = load i32, ptr %8, align 4, !tbaa !9
  %28 = load ptr, ptr %11, align 8, !tbaa !45
  %29 = getelementptr inbounds nuw %struct.tree, ptr %28, i32 0, i32 0
  %30 = load i32, ptr %29, align 8
  %31 = lshr i32 %30, 4
  %32 = or i32 %31, %27
  %33 = load i32, ptr %29, align 8
  %34 = and i32 %32, 268435455
  %35 = shl i32 %34, 4
  %36 = and i32 %33, 15
  %37 = or i32 %36, %35
  store i32 %37, ptr %29, align 8
  %38 = load ptr, ptr %6, align 8, !tbaa !88
  %39 = load ptr, ptr %11, align 8, !tbaa !45
  %40 = getelementptr inbounds nuw %struct.tree, ptr %39, i32 0, i32 0
  %41 = load ptr, ptr %7, align 8, !tbaa !398
  %42 = getelementptr inbounds nuw %struct.strbuf, ptr %41, i32 0, i32 2
  %43 = load ptr, ptr %42, align 8, !tbaa !167
  call void @add_pending_object_with_path(ptr noundef %38, ptr noundef %40, ptr noundef @.str.36, i32 noundef 16384, ptr noundef %43)
  call void @llvm.lifetime.end.p0(i64 8, ptr %11) #12
  br label %44

44:                                               ; preds = %20, %4
  store i32 0, ptr %10, align 4, !tbaa !9
  br label %45

45:                                               ; preds = %74, %44
  %46 = load i32, ptr %10, align 4, !tbaa !9
  %47 = load ptr, ptr %5, align 8, !tbaa !400
  %48 = getelementptr inbounds nuw %struct.cache_tree, ptr %47, i32 0, i32 2
  %49 = load i32, ptr %48, align 8, !tbaa !404
  %50 = icmp slt i32 %46, %49
  br i1 %50, label %51, label %77

51:                                               ; preds = %45
  call void @llvm.lifetime.start.p0(i64 8, ptr %12) #12
  %52 = load ptr, ptr %5, align 8, !tbaa !400
  %53 = getelementptr inbounds nuw %struct.cache_tree, ptr %52, i32 0, i32 4
  %54 = load ptr, ptr %53, align 8, !tbaa !405
  %55 = load i32, ptr %10, align 4, !tbaa !9
  %56 = sext i32 %55 to i64
  %57 = getelementptr inbounds ptr, ptr %54, i64 %56
  %58 = load ptr, ptr %57, align 8, !tbaa !406
  store ptr %58, ptr %12, align 8, !tbaa !406
  %59 = load ptr, ptr %7, align 8, !tbaa !398
  %60 = load i64, ptr %9, align 8, !tbaa !34
  %61 = icmp ne i64 %60, 0
  %62 = select i1 %61, ptr @.str.42, ptr @.str.36
  %63 = load ptr, ptr %12, align 8, !tbaa !406
  %64 = getelementptr inbounds nuw %struct.cache_tree_sub, ptr %63, i32 0, i32 4
  %65 = getelementptr inbounds [0 x i8], ptr %64, i64 0, i64 0
  call void (ptr, ptr, ...) @strbuf_addf(ptr noundef %59, ptr noundef @.str.41, ptr noundef %62, ptr noundef %65)
  %66 = load ptr, ptr %12, align 8, !tbaa !406
  %67 = getelementptr inbounds nuw %struct.cache_tree_sub, ptr %66, i32 0, i32 0
  %68 = load ptr, ptr %67, align 8, !tbaa !400
  %69 = load ptr, ptr %6, align 8, !tbaa !88
  %70 = load ptr, ptr %7, align 8, !tbaa !398
  %71 = load i32, ptr %8, align 4, !tbaa !9
  call void @add_cache_tree(ptr noundef %68, ptr noundef %69, ptr noundef %70, i32 noundef %71)
  %72 = load ptr, ptr %7, align 8, !tbaa !398
  %73 = load i64, ptr %9, align 8, !tbaa !34
  call void @strbuf_setlen(ptr noundef %72, i64 noundef %73)
  call void @llvm.lifetime.end.p0(i64 8, ptr %12) #12
  br label %74

74:                                               ; preds = %51
  %75 = load i32, ptr %10, align 4, !tbaa !9
  %76 = add nsw i32 %75, 1
  store i32 %76, ptr %10, align 4, !tbaa !9
  br label %45, !llvm.loop !408

77:                                               ; preds = %45
  call void @llvm.lifetime.end.p0(i64 4, ptr %10) #12
  call void @llvm.lifetime.end.p0(i64 8, ptr %9) #12
  ret void
}