; Function Attrs: nounwind uwtable
define internal fastcc void @add_cache_tree(ptr noundef %0, ptr noundef %1, ptr noundef nonnull %2, i32 noundef %3) unnamed_addr #2 {
  %5 = getelementptr inbounds nuw i8, ptr %2, i64 8
  %6 = load i64, ptr %5, align 8, !tbaa !381
  %7 = load i32, ptr %0, align 8, !tbaa !406
  %8 = icmp sgt i32 %7, -1
  br i1 %8, label %9, label %19

9:                                                ; preds = %4
  %10 = getelementptr inbounds nuw i8, ptr %1, i64 24
  %11 = load ptr, ptr %10, align 8, !tbaa !73
  %12 = getelementptr inbounds nuw i8, ptr %0, i64 4
  %13 = tail call ptr @lookup_tree(ptr noundef %11, ptr noundef nonnull %12) #26
  %14 = load i32, ptr %13, align 8
  %15 = shl i32 %3, 4
  %16 = or i32 %14, %15
  store i32 %16, ptr %13, align 8
  %17 = getelementptr inbounds nuw i8, ptr %2, i64 16
  %18 = load ptr, ptr %17, align 8, !tbaa !134
  tail call fastcc void @add_pending_object_with_path(ptr noundef %1, ptr noundef nonnull %13, ptr noundef nonnull @.str.36, i32 noundef 16384, ptr noundef %18)
  br label %19

19:                                               ; preds = %9, %4
  %20 = getelementptr inbounds nuw i8, ptr %0, i64 40
  %21 = load i32, ptr %20, align 8, !tbaa !409
  %22 = icmp sgt i32 %21, 0
  br i1 %22, label %.lr.ph, label %._crit_edge

.lr.ph:                                           ; preds = %19
  %23 = getelementptr inbounds nuw i8, ptr %0, i64 48
  %.not = icmp eq i64 %6, 0
  %24 = select i1 %.not, ptr @.str.36, ptr @.str.42
  %25 = getelementptr inbounds nuw i8, ptr %2, i64 16
  br label %26

26:                                               ; preds = %.lr.ph, %strbuf_setlen.exit
  %indvars.iv = phi i64 [ 0, %.lr.ph ], [ %indvars.iv.next, %strbuf_setlen.exit ]
  %27 = load ptr, ptr %23, align 8, !tbaa !410
  %28 = getelementptr inbounds nuw ptr, ptr %27, i64 %indvars.iv
  %29 = load ptr, ptr %28, align 8, !tbaa !411
  %30 = getelementptr inbounds nuw i8, ptr %29, i64 20
  tail call void (ptr, ptr, ...) @strbuf_addf(ptr noundef nonnull %2, ptr noundef nonnull @.str.41, ptr noundef nonnull %24, ptr noundef nonnull %30) #26
  %31 = load ptr, ptr %29, align 8, !tbaa !413
  tail call fastcc void @add_cache_tree(ptr noundef %31, ptr noundef %1, ptr noundef %2, i32 noundef %3)
  %32 = load i64, ptr %2, align 8, !tbaa !380
  %spec.select.i = tail call i64 @llvm.usub.sat.i64(i64 %32, i64 1)
  %33 = icmp ugt i64 %6, %spec.select.i
  br i1 %33, label %34, label %35

34:                                               ; preds = %26
  tail call void (ptr, i32, ptr, ...) @BUG_fl(ptr noundef nonnull @.str.43, i32 noundef 167, ptr noundef nonnull @.str.44) #28
  unreachable

35:                                               ; preds = %26
  store i64 %6, ptr %5, align 8, !tbaa !381
  %36 = load ptr, ptr %25, align 8, !tbaa !134
  %.not9.i = icmp eq ptr %36, @strbuf_slopbuf
  br i1 %.not9.i, label %strbuf_setlen.exit, label %37

37:                                               ; preds = %35
  %38 = getelementptr inbounds nuw i8, ptr %36, i64 %6
  store i8 0, ptr %38, align 1, !tbaa !28
  br label %strbuf_setlen.exit

strbuf_setlen.exit:                               ; preds = %35, %37
  %indvars.iv.next = add nuw nsw i64 %indvars.iv, 1
  %39 = load i32, ptr %20, align 8, !tbaa !409
  %40 = sext i32 %39 to i64
  %41 = icmp slt i64 %indvars.iv.next, %40
  br i1 %41, label %26, label %._crit_edge, !llvm.loop !414

._crit_edge:                                      ; preds = %strbuf_setlen.exit, %19
  ret void
}